target datalayout = "e-m:e-p270:32:32-p271:32:32-p272:64:64-i64:64-i128:128-f80:128-n8:16:32:64-S128"
target triple = "x86_64-pc-linux-gnu"

%struct._zval_struct = type { %union._zend_value, %union.anon, %union.anon.3 }
%union._zend_value = type { i64 }
%union.anon = type { i32 }
%union.anon.3 = type { i32 }
%struct._zend_op_array = type { i8, [3 x i8], i32, ptr, ptr, ptr, i32, i32, ptr, ptr, ptr, ptr, i32, ptr, i32, i32, i32, ptr, ptr, ptr, ptr, ptr, i32, i32, ptr, ptr, ptr, i32, i32, i32, i32, ptr, ptr, [6 x ptr] }
%struct._zend_op = type { ptr, %union._znode_op, %union._znode_op, %union._znode_op, i32, i32, i8, i8, i8, i8 }
%union._znode_op = type { i32 }
%struct._zend_array = type { %struct._zend_refcounted_h, %union.anon.5, i32, %union.anon.7, i32, i32, i32, i32, i64, ptr }
%struct._zend_refcounted_h = type { i32, %union.anon.4 }
%union.anon.4 = type { i32 }
%union.anon.5 = type { i32 }
%union.anon.7 = type { ptr }
%struct._zend_optimizer_ctx = type { ptr, ptr, ptr, i64, i64 }
%struct._zend_script = type { ptr, %struct._zend_op_array, %struct._zend_array, %struct._zend_array }
%struct.anon.8 = type { i8, [3 x i8], i32, ptr, ptr, ptr, i32, i32, ptr, ptr, ptr, ptr, i32, ptr }

; Function Attrs: alwaysinline nounwind uwtable
define internal i32 @zend_vm_calc_used_stack(i32 noundef %0, ptr noundef %1) #1 {
  %3 = alloca i32, align 4
  %4 = alloca ptr, align 8
  %5 = alloca i32, align 4
  store i32 %0, ptr %3, align 4, !tbaa !29
  store ptr %1, ptr %4, align 8, !tbaa !166
  call void @llvm.lifetime.start.p0(i64 4, ptr %5) #13
  %6 = load i32, ptr %3, align 4, !tbaa !29
  %7 = add i32 5, %6
  %8 = load ptr, ptr %4, align 8, !tbaa !166
  %9 = getelementptr inbounds nuw %struct.anon.8, ptr %8, i32 0, i32 12
  %10 = load i32, ptr %9, align 8, !tbaa !17
  %11 = add i32 %7, %10
  store i32 %11, ptr %5, align 4, !tbaa !29
  %12 = load ptr, ptr %4, align 8, !tbaa !166
  %13 = load i8, ptr %12, align 8, !tbaa !17
  %14 = zext i8 %13 to i32
  %15 = icmp ne i32 %14, 1
  %16 = xor i1 %15, true
  %17 = xor i1 %16, true
  %18 = zext i1 %17 to i32
  %19 = sext i32 %18 to i64
  %20 = call i64 @llvm.expect.i64(i64 %19, i64 1)
  %21 = icmp ne i64 %20, 0
  br i1 %21, label %22, label %42

22:                                               ; preds = %2
  %23 = load ptr, ptr %4, align 8, !tbaa !166
  %24 = getelementptr inbounds nuw %struct._zend_op_array, ptr %23, i32 0, i32 15
  %25 = load i32, ptr %24, align 4, !tbaa !17
  %26 = load ptr, ptr %4, align 8, !tbaa !166
  %27 = getelementptr inbounds nuw %struct._zend_op_array, ptr %26, i32 0, i32 6
  %28 = load i32, ptr %27, align 8, !tbaa !17
  %29 = load i32, ptr %3, align 4, !tbaa !29
  %30 = icmp ult i32 %28, %29
  br i1 %30, label %31, label %35

31:                                               ; preds = %22
  %32 = load ptr, ptr %4, align 8, !tbaa !166
  %33 = getelementptr inbounds nuw %struct._zend_op_array, ptr %32, i32 0, i32 6
  %34 = load i32, ptr %33, align 8, !tbaa !17
  br label %37

35:                                               ; preds = %22
  %36 = load i32, ptr %3, align 4, !tbaa !29
  br label %37

37:                                               ; preds = %35, %31
  %38 = phi i32 [ %34, %31 ], [ %36, %35 ]
  %39 = sub i32 %25, %38
  %40 = load i32, ptr %5, align 4, !tbaa !29
  %41 = add i32 %40, %39
  store i32 %41, ptr %5, align 4, !tbaa !29
  br label %42

42:                                               ; preds = %37, %2
  %43 = load i32, ptr %5, align 4, !tbaa !29
  %44 = zext i32 %43 to i64
  %45 = mul i64 %44, 16
  %46 = trunc i64 %45 to i32
  call void @llvm.lifetime.end.p0(i64 4, ptr %5) #13
  ret i32 %46
}

; Function Attrs: alwaysinline nounwind uwtable
define internal ptr @zend_hash_find_ptr(ptr noundef %0, ptr noundef %1) #1 {
  %3 = alloca ptr, align 8
  %4 = alloca ptr, align 8
  %5 = alloca ptr, align 8
  %6 = alloca ptr, align 8
  %7 = alloca i32, align 4
  store ptr %0, ptr %4, align 8, !tbaa !96
  store ptr %1, ptr %5, align 8, !tbaa !31
  call void @llvm.lifetime.start.p0(i64 8, ptr %6) #13
  %8 = load ptr, ptr %4, align 8, !tbaa !96
  %9 = load ptr, ptr %5, align 8, !tbaa !31
  %10 = call ptr @zend_hash_find(ptr noundef %8, ptr noundef %9)
  store ptr %10, ptr %6, align 8, !tbaa !9
  %11 = load ptr, ptr %6, align 8, !tbaa !9
  %12 = icmp ne ptr %11, null
  br i1 %12, label %13, label %21

13:                                               ; preds = %2
  %14 = load ptr, ptr %6, align 8, !tbaa !9
  %15 = getelementptr inbounds nuw %struct._zval_struct, ptr %14, i32 0, i32 0
  %16 = load ptr, ptr %15, align 8, !tbaa !17
  %17 = icmp ne ptr %16, null
  call void @llvm.assume(i1 %17)
  %18 = load ptr, ptr %6, align 8, !tbaa !9
  %19 = getelementptr inbounds nuw %struct._zval_struct, ptr %18, i32 0, i32 0
  %20 = load ptr, ptr %19, align 8, !tbaa !17
  store ptr %20, ptr %3, align 8
  store i32 1, ptr %7, align 4
  br label %22

21:                                               ; preds = %2
  store ptr null, ptr %3, align 8
  store i32 1, ptr %7, align 4
  br label %22

22:                                               ; preds = %21, %13
  call void @llvm.lifetime.end.p0(i64 8, ptr %6) #13
  %23 = load ptr, ptr %3, align 8
  ret ptr %23
}

; Function Attrs: nounwind uwtable
define internal void @zend_adjust_fcall_stack_size(ptr noundef %0, ptr noundef %1) #0 {
  %3 = alloca ptr, align 8
  %4 = alloca ptr, align 8
  %5 = alloca ptr, align 8
  %6 = alloca ptr, align 8
  %7 = alloca ptr, align 8
  store ptr %0, ptr %3, align 8, !tbaa !98
  store ptr %1, ptr %4, align 8, !tbaa !4
  call void @llvm.lifetime.start.p0(i64 8, ptr %5) #13
  call void @llvm.lifetime.start.p0(i64 8, ptr %6) #13
  call void @llvm.lifetime.start.p0(i64 8, ptr %7) #13
  %8 = load ptr, ptr %3, align 8, !tbaa !98
  %9 = getelementptr inbounds nuw %struct._zend_op_array, ptr %8, i32 0, i32 17
  %10 = load ptr, ptr %9, align 8, !tbaa !119
  store ptr %10, ptr %6, align 8, !tbaa !100
  %11 = load ptr, ptr %6, align 8, !tbaa !100
  %12 = load ptr, ptr %3, align 8, !tbaa !98
  %13 = getelementptr inbounds nuw %struct._zend_op_array, ptr %12, i32 0, i32 16
  %14 = load i32, ptr %13, align 8, !tbaa !120
  %15 = zext i32 %14 to i64
  %16 = getelementptr inbounds nuw %struct._zend_op, ptr %11, i64 %15
  store ptr %16, ptr %7, align 8, !tbaa !100
  br label %17

17:                                               ; preds = %52, %2
  %18 = load ptr, ptr %6, align 8, !tbaa !100
  %19 = load ptr, ptr %7, align 8, !tbaa !100
  %20 = icmp ult ptr %18, %19
  br i1 %20, label %21, label %55

21:                                               ; preds = %17
  %22 = load ptr, ptr %6, align 8, !tbaa !100
  %23 = getelementptr inbounds nuw %struct._zend_op, ptr %22, i32 0, i32 6
  %24 = load i8, ptr %23, align 4, !tbaa !102
  %25 = zext i8 %24 to i32
  %26 = icmp eq i32 %25, 61
  br i1 %26, label %27, label %52

27:                                               ; preds = %21
  %28 = load ptr, ptr %4, align 8, !tbaa !4
  %29 = getelementptr inbounds nuw %struct._zend_optimizer_ctx, ptr %28, i32 0, i32 1
  %30 = load ptr, ptr %29, align 8, !tbaa !180
  %31 = getelementptr inbounds nuw %struct._zend_script, ptr %30, i32 0, i32 2
  %32 = load ptr, ptr %6, align 8, !tbaa !100
  %33 = load ptr, ptr %6, align 8, !tbaa !100
  %34 = getelementptr inbounds nuw %struct._zend_op, ptr %33, i32 0, i32 2
  %35 = load i32, ptr %34, align 4, !tbaa !17
  %36 = sext i32 %35 to i64
  %37 = getelementptr inbounds i8, ptr %32, i64 %36
  %38 = getelementptr inbounds nuw %struct._zval_struct, ptr %37, i32 0, i32 0
  %39 = load ptr, ptr %38, align 8, !tbaa !17
  %40 = call ptr @zend_hash_find_ptr(ptr noundef %31, ptr noundef %39)
  store ptr %40, ptr %5, align 8, !tbaa !166
  %41 = load ptr, ptr %5, align 8, !tbaa !166
  %42 = icmp ne ptr %41, null
  br i1 %42, label %43, label %51

43:                                               ; preds = %27
  %44 = load ptr, ptr %6, align 8, !tbaa !100
  %45 = getelementptr inbounds nuw %struct._zend_op, ptr %44, i32 0, i32 4
  %46 = load i32, ptr %45, align 4, !tbaa !105
  %47 = load ptr, ptr %5, align 8, !tbaa !166
  %48 = call i32 @zend_vm_calc_used_stack(i32 noundef %46, ptr noundef %47)
  %49 = load ptr, ptr %6, align 8, !tbaa !100
  %50 = getelementptr inbounds nuw %struct._zend_op, ptr %49, i32 0, i32 1
  store i32 %48, ptr %50, align 8, !tbaa !17
  br label %51

51:                                               ; preds = %43, %27
  br label %52

52:                                               ; preds = %51, %21
  %53 = load ptr, ptr %6, align 8, !tbaa !100
  %54 = getelementptr inbounds nuw %struct._zend_op, ptr %53, i32 1
  store ptr %54, ptr %6, align 8, !tbaa !100
  br label %17

55:                                               ; preds = %17
  call void @llvm.lifetime.end.p0(i64 8, ptr %7) #13
  call void @llvm.lifetime.end.p0(i64 8, ptr %6) #13
  call void @llvm.lifetime.end.p0(i64 8, ptr %5) #13
  ret void
}

; Function Attrs: nounwind uwtable
define internal void @step_adjust_fcall_stack_size(ptr noundef %0, ptr noundef %1) #0 {
  %3 = alloca ptr, align 8
  %4 = alloca ptr, align 8
  store ptr %0, ptr %3, align 8, !tbaa !98
  store ptr %1, ptr %4, align 8, !tbaa !28
  %5 = load ptr, ptr %3, align 8, !tbaa !98
  %6 = load ptr, ptr %4, align 8, !tbaa !28
  call void @zend_adjust_fcall_stack_size(ptr noundef %5, ptr noundef %6)
  ret void
}