; Function Attrs: nounwind uwtable
define internal void @step_adjust_fcall_stack_size(ptr noundef readonly captures(none) %0, ptr noundef readonly captures(none) %1) #0 {
  %3 = getelementptr i8, ptr %0, i64 96
  %.val = load i32, ptr %3, align 8, !tbaa !99
  %4 = getelementptr i8, ptr %0, i64 104
  %.val2 = load ptr, ptr %4, align 8, !tbaa !98
  %5 = zext i32 %.val to i64
  %6 = getelementptr inbounds nuw %struct._zend_op, ptr %.val2, i64 %5
  %.not.i = icmp eq i32 %.val, 0
  br i1 %.not.i, label %zend_adjust_fcall_stack_size.exit, label %.lr.ph.i

.lr.ph.i:                                         ; preds = %2
  %7 = getelementptr inbounds nuw i8, ptr %1, i64 8
  br label %8

8:                                                ; preds = %zend_hash_find_ptr.exit.thread.i, %.lr.ph.i
  %.03.i = phi ptr [ %.val2, %.lr.ph.i ], [ %39, %zend_hash_find_ptr.exit.thread.i ]
  %9 = getelementptr inbounds nuw i8, ptr %.03.i, i64 28
  %10 = load i8, ptr %9, align 4, !tbaa !83
  %11 = icmp eq i8 %10, 61
  br i1 %11, label %12, label %zend_hash_find_ptr.exit.thread.i

12:                                               ; preds = %8
  %13 = load ptr, ptr %7, align 8, !tbaa !153
  %14 = getelementptr inbounds nuw i8, ptr %13, i64 264
  %15 = getelementptr inbounds nuw i8, ptr %.03.i, i64 12
  %16 = load i32, ptr %15, align 4, !tbaa !20
  %17 = sext i32 %16 to i64
  %18 = getelementptr inbounds i8, ptr %.03.i, i64 %17
  %19 = load ptr, ptr %18, align 8, !tbaa !20
  %20 = tail call ptr @zend_hash_find(ptr noundef nonnull %14, ptr noundef %19) #20
  %.not.i.i = icmp eq ptr %20, null
  br i1 %.not.i.i, label %zend_hash_find_ptr.exit.thread.i, label %21

21:                                               ; preds = %12
  %22 = load ptr, ptr %20, align 8, !tbaa !20, !nonnull !57, !noundef !57
  %23 = getelementptr inbounds nuw i8, ptr %.03.i, i64 20
  %24 = load i32, ptr %23, align 4, !tbaa !86
  %25 = add i32 %24, 5
  %26 = getelementptr inbounds nuw i8, ptr %22, i64 72
  %27 = load i32, ptr %26, align 8, !tbaa !20
  %28 = add i32 %25, %27
  %29 = load i8, ptr %22, align 8, !tbaa !20
  %.not.i15.i = icmp eq i8 %29, 1
  br i1 %.not.i15.i, label %zend_vm_calc_used_stack.exit.i, label %30, !prof !106

30:                                               ; preds = %21
  %31 = getelementptr inbounds nuw i8, ptr %22, i64 92
  %32 = load i32, ptr %31, align 4, !tbaa !20
  %33 = getelementptr inbounds nuw i8, ptr %22, i64 32
  %34 = load i32, ptr %33, align 8, !tbaa !20
  %..i.i = tail call i32 @llvm.umin.i32(i32 %34, i32 %24)
  %35 = add i32 %32, %28
  %36 = sub i32 %35, %..i.i
  br label %zend_vm_calc_used_stack.exit.i

zend_vm_calc_used_stack.exit.i:                   ; preds = %30, %21
  %.0.i16.i = phi i32 [ %36, %30 ], [ %28, %21 ]
  %37 = shl i32 %.0.i16.i, 4
  %38 = getelementptr inbounds nuw i8, ptr %.03.i, i64 8
  store i32 %37, ptr %38, align 8, !tbaa !20
  br label %zend_hash_find_ptr.exit.thread.i

zend_hash_find_ptr.exit.thread.i:                 ; preds = %zend_vm_calc_used_stack.exit.i, %12, %8
  %39 = getelementptr inbounds nuw i8, ptr %.03.i, i64 32
  %40 = icmp ult ptr %39, %6
  br i1 %40, label %8, label %zend_adjust_fcall_stack_size.exit

zend_adjust_fcall_stack_size.exit:                ; preds = %zend_hash_find_ptr.exit.thread.i, %2
  ret void
}